(lp0
S'poi'
p1
aS'total_stock_value'
p2
aS'from_poi_to_this_person_frac'
p3
aS'from_this_person_to_poi_frac'
p4
aS'bonus'
p5
aS'salary'
p6
aS'shared_receipt_with_poi'
p7
aS'restricted_stock_deferred'
p8
a.